target datalayout = "e-m:e-p270:32:32-p271:32:32-p272:64:64-i64:64-i128:128-f80:128-n8:16:32:64-S128"
target triple = "x86_64-pc-linux-gnu"

%struct.slurm_conf_t = type { i64, ptr, i16, ptr, ptr, ptr, ptr, ptr, i16, ptr, ptr, ptr, ptr, ptr, ptr, ptr, i16, ptr, ptr, ptr, ptr, i16, ptr, ptr, ptr, i64, ptr, ptr, ptr, ptr, i16, ptr, ptr, i16, i32, ptr, i32, ptr, i32, i32, ptr, ptr, i64, i64, ptr, i16, i16, ptr, i32, i32, ptr, i32, ptr, i32, i16, i16, i16, ptr, i16, i16, ptr, ptr, i32, i16, i16, ptr, i32, i16, ptr, ptr, ptr, ptr, i16, ptr, ptr, ptr, ptr, i32, ptr, ptr, ptr, ptr, i16, i16, ptr, i32, i32, i32, i16, i16, ptr, ptr, i16, ptr, ptr, i32, i32, i32, i32, i32, i64, i32, i32, i16, ptr, ptr, i32, ptr, ptr, ptr, i16, i32, ptr, ptr, i16, ptr, ptr, i32, i16, ptr, ptr, ptr, ptr, i32, i32, i16, i16, i32, ptr, i16, ptr, i32, i32, i32, i32, i32, i32, ptr, i16, ptr, ptr, i32, i16, ptr, i32, i16, i16, ptr, ptr, ptr, i16, ptr, ptr, ptr, ptr, i16, i16, ptr, i16, ptr, i16, ptr, i16, ptr, i16, ptr, ptr, ptr, ptr, i16, ptr, ptr, ptr, i32, ptr, i32, ptr, ptr, i16, ptr, ptr, i32, i16, ptr, ptr, i16, i16, ptr, i16, ptr, ptr, ptr, i32, ptr, i16, i16, ptr, ptr, ptr, ptr, ptr, ptr, ptr, ptr, i16, i32, i16, ptr, ptr, ptr, ptr, i32, ptr, ptr, ptr, i16, ptr, ptr, ptr, i16, ptr, i16, ptr, i16, i16, ptr }
%struct.job_record = type { i32, ptr, ptr, ptr, ptr, i16, i32, i32, i32, ptr, i32, ptr, ptr, i16, ptr, double, i64, ptr, ptr, ptr, ptr, ptr, ptr, i32, ptr, i32, i64, i64, i32, i32, ptr, i16, i64, i64, i8, i32, ptr, ptr, ptr, ptr, ptr, ptr, ptr, ptr, i32, ptr, ptr, i32, ptr, i32, ptr, i32, ptr, i32, ptr, ptr, ptr, ptr, ptr, ptr, i32, i16, i64, ptr, ptr, ptr, ptr, %struct.acct_policy_limit_set_t, i16, ptr, ptr, ptr, ptr, ptr, i32, ptr, ptr, ptr, ptr, ptr, i32, i32, ptr, ptr, ptr, i16, ptr, ptr, i8, ptr, ptr, i64, i64, i8, i32, i32, i8, i32, ptr, i32, i64, i32, ptr, ptr, ptr, i8, i16, i64, i32, ptr, ptr, ptr, ptr, ptr, i16, i32, ptr, ptr, ptr, ptr, i32, ptr, i32, i16, i64, ptr, i32, i32, ptr, i64, ptr, ptr, i64, i32, i32, i64, i32, i32, ptr, ptr, ptr, ptr, ptr, ptr, ptr, ptr, ptr, ptr, ptr, ptr, i32, ptr, i16, i16, i16, i16, ptr, i32, i32, i8, i64 }
%struct.acct_policy_limit_set_t = type { i16, i16, ptr }

@slurm_conf = external global %struct.slurm_conf_t, align 8
@_preempt_jobs.sched_update = internal global i64 0, align 8
@preempt_send_user_signal = external global i8, align 1
@.str.57 = private unnamed_addr constant [17 x i8] c"send_user_signal\00", align 1
@.str.58 = private unnamed_addr constant [25 x i8] c"preempt_send_user_signal\00", align 1
@.str.59 = private unnamed_addr constant [36 x i8] c"%s: Invalid preempt_mode %u for %pJ\00", align 1
@__func__._preempt_jobs = private unnamed_addr constant [14 x i8] c"_preempt_jobs\00", align 1
@.str.60 = private unnamed_addr constant [71 x i8] c"preempted %pJ suspended by gang scheduler to reclaim resources for %pJ\00", align 1

; Function Attrs: nounwind uwtable
define internal void @_preempt_jobs(ptr noundef %0, i1 noundef zeroext %1, ptr noundef %2, ptr noundef %3) #0 {
  %5 = alloca ptr, align 8
  %6 = alloca i8, align 1
  %7 = alloca ptr, align 8
  %8 = alloca ptr, align 8
  %9 = alloca ptr, align 8
  %10 = alloca ptr, align 8
  %11 = alloca i16, align 2
  %12 = alloca i32, align 4
  store ptr %0, ptr %5, align 8
  %13 = zext i1 %1 to i8
  store i8 %13, ptr %6, align 1
  store ptr %2, ptr %7, align 8
  store ptr %3, ptr %8, align 8
  call void @llvm.lifetime.start.p0(i64 8, ptr %9) #8
  call void @llvm.lifetime.start.p0(i64 8, ptr %10) #8
  call void @llvm.lifetime.start.p0(i64 2, ptr %11) #8
  call void @llvm.lifetime.start.p0(i64 4, ptr %12) #8
  store i32 0, ptr %12, align 4
  %14 = load i64, ptr @_preempt_jobs.sched_update, align 8
  %15 = load i64, ptr @slurm_conf, align 8
  %16 = icmp ne i64 %14, %15
  br i1 %16, label %17, label %28

17:                                               ; preds = %4
  store i8 0, ptr @preempt_send_user_signal, align 1
  %18 = load ptr, ptr getelementptr inbounds nuw (%struct.slurm_conf_t, ptr @slurm_conf, i32 0, i32 119), align 8
  %19 = call ptr @xstrcasestr(ptr noundef %18, ptr noundef @.str.57)
  %20 = icmp ne ptr %19, null
  br i1 %20, label %25, label %21

21:                                               ; preds = %17
  %22 = load ptr, ptr getelementptr inbounds nuw (%struct.slurm_conf_t, ptr @slurm_conf, i32 0, i32 187), align 8
  %23 = call ptr @xstrcasestr(ptr noundef %22, ptr noundef @.str.58)
  %24 = icmp ne ptr %23, null
  br i1 %24, label %25, label %26

25:                                               ; preds = %21, %17
  store i8 1, ptr @preempt_send_user_signal, align 1
  br label %26

26:                                               ; preds = %25, %21
  %27 = load i64, ptr @slurm_conf, align 8
  store i64 %27, ptr @_preempt_jobs.sched_update, align 8
  br label %28

28:                                               ; preds = %26, %4
  %29 = load ptr, ptr %5, align 8
  %30 = call ptr @list_iterator_create(ptr noundef %29)
  store ptr %30, ptr %9, align 8
  br label %31

31:                                               ; preds = %84, %83, %76, %67, %41, %28
  %32 = load ptr, ptr %9, align 8
  %33 = call ptr @list_next(ptr noundef %32)
  store ptr %33, ptr %10, align 8
  %34 = icmp ne ptr %33, null
  br i1 %34, label %35, label %85

35:                                               ; preds = %31
  %36 = load ptr, ptr %10, align 8
  %37 = call zeroext i16 @slurm_job_preempt_mode(ptr noundef %36)
  store i16 %37, ptr %11, align 2
  %38 = load i16, ptr %11, align 2
  %39 = zext i16 %38 to i32
  %40 = icmp eq i32 %39, 0
  br i1 %40, label %41, label %46

41:                                               ; preds = %35
  %42 = load i16, ptr %11, align 2
  %43 = zext i16 %42 to i32
  %44 = load ptr, ptr %10, align 8
  %45 = call i32 (ptr, ...) @error(ptr noundef @.str.59, ptr noundef @__func__._preempt_jobs, i32 noundef %43, ptr noundef %44)
  br label %31, !llvm.loop !37

46:                                               ; preds = %35
  %47 = load i16, ptr %11, align 2
  %48 = zext i16 %47 to i32
  %49 = icmp eq i32 %48, 1
  br i1 %49, label %50, label %71

50:                                               ; preds = %46
  %51 = load i16, ptr getelementptr inbounds nuw (%struct.slurm_conf_t, ptr @slurm_conf, i32 0, i32 118), align 4
  %52 = zext i16 %51 to i32
  %53 = and i32 %52, 32768
  %54 = icmp ne i32 %53, 0
  br i1 %54, label %55, label %71

55:                                               ; preds = %50
  br label %56

56:                                               ; preds = %55
  br label %57

57:                                               ; preds = %56
  %58 = call i32 @get_log_level()
  %59 = icmp sge i32 %58, 5
  br i1 %59, label %60, label %63

60:                                               ; preds = %57
  %61 = load ptr, ptr %10, align 8
  %62 = load ptr, ptr %8, align 8
  call void (i32, ptr, ...) @log_var(i32 noundef 5, ptr noundef @.str.60, ptr noundef %61, ptr noundef %62)
  br label %63

63:                                               ; preds = %60, %57
  br label %64

64:                                               ; preds = %63
  br label %65

65:                                               ; preds = %64
  br label %66

66:                                               ; preds = %65
  br label %67

67:                                               ; preds = %66
  %68 = call i64 @time(ptr noundef null) #8
  %69 = load ptr, ptr %10, align 8
  %70 = getelementptr inbounds nuw %struct.job_record, ptr %69, i32 0, i32 92
  store i64 %68, ptr %70, align 8
  br label %31, !llvm.loop !37

71:                                               ; preds = %50, %46
  %72 = load i32, ptr %12, align 4
  %73 = add nsw i32 %72, 1
  store i32 %73, ptr %12, align 4
  %74 = load i8, ptr %6, align 1, !range !12, !noundef !13
  %75 = trunc i8 %74 to i1
  br i1 %75, label %77, label %76

76:                                               ; preds = %71
  br label %31, !llvm.loop !37

77:                                               ; preds = %71
  %78 = load ptr, ptr %10, align 8
  %79 = load ptr, ptr %8, align 8
  %80 = load i16, ptr %11, align 2
  %81 = call i32 @slurm_job_preempt(ptr noundef %78, ptr noundef %79, i16 noundef zeroext %80, i1 noundef zeroext true)
  %82 = icmp ne i32 %81, 0
  br i1 %82, label %83, label %84

83:                                               ; preds = %77
  br label %31, !llvm.loop !37

84:                                               ; preds = %77
  br label %31, !llvm.loop !37

85:                                               ; preds = %31
  %86 = load ptr, ptr %9, align 8
  call void @list_iterator_destroy(ptr noundef %86)
  %87 = load i32, ptr %12, align 4
  %88 = icmp sgt i32 %87, 0
  br i1 %88, label %89, label %91

89:                                               ; preds = %85
  %90 = load ptr, ptr %7, align 8
  store i32 2016, ptr %90, align 4
  br label %91

91:                                               ; preds = %89, %85
  call void @llvm.lifetime.end.p0(i64 4, ptr %12) #8
  call void @llvm.lifetime.end.p0(i64 2, ptr %11) #8
  call void @llvm.lifetime.end.p0(i64 8, ptr %10) #8
  call void @llvm.lifetime.end.p0(i64 8, ptr %9) #8
  ret void
}