; Function Attrs: nounwind uwtable
define internal fastcc void @_preempt_jobs(ptr noundef %0, i1 noundef zeroext %1, ptr noundef nonnull writeonly captures(none) %2, ptr noundef %3) unnamed_addr #0 {
  %5 = load i64, ptr @_preempt_jobs.sched_update, align 8
  %6 = load i64, ptr @slurm_conf, align 8
  %.not = icmp eq i64 %5, %6
  br i1 %.not, label %16, label %7

7:                                                ; preds = %4
  store i8 0, ptr @preempt_send_user_signal, align 1
  %8 = load ptr, ptr getelementptr inbounds nuw (i8, ptr @slurm_conf, i64 800), align 8
  %9 = tail call ptr @xstrcasestr(ptr noundef %8, ptr noundef nonnull @.str.57) #14
  %.not19 = icmp eq ptr %9, null
  br i1 %.not19, label %10, label %13

10:                                               ; preds = %7
  %11 = load ptr, ptr getelementptr inbounds nuw (i8, ptr @slurm_conf, i64 1248), align 8
  %12 = tail call ptr @xstrcasestr(ptr noundef %11, ptr noundef nonnull @.str.58) #14
  %.not20 = icmp eq ptr %12, null
  br i1 %.not20, label %14, label %13

13:                                               ; preds = %10, %7
  store i8 1, ptr @preempt_send_user_signal, align 1
  br label %14

14:                                               ; preds = %13, %10
  %15 = load i64, ptr @slurm_conf, align 8
  store i64 %15, ptr @_preempt_jobs.sched_update, align 8
  br label %16

16:                                               ; preds = %14, %4
  %17 = tail call ptr @list_iterator_create(ptr noundef %0) #14
  %18 = tail call ptr @list_next(ptr noundef %17) #14
  %.not212527 = icmp eq ptr %18, null
  br i1 %.not212527, label %.outer._crit_edge.thread42, label %.lr.ph.lr.ph

.outer._crit_edge.thread42:                       ; preds = %16
  tail call void @list_iterator_destroy(ptr noundef %17) #14
  br label %57

.lr.ph.lr.ph:                                     ; preds = %16
  br i1 %1, label %.lr.ph.us, label %.lr.ph

.lr.ph.us:                                        ; preds = %.lr.ph.lr.ph, %.outer.backedge.us
  %19 = phi ptr [ %36, %.outer.backedge.us ], [ %18, %.lr.ph.lr.ph ]
  %.0.ph28.us = phi i32 [ %34, %.outer.backedge.us ], [ 0, %.lr.ph.lr.ph ]
  br label %20

20:                                               ; preds = %.backedge.us, %.lr.ph.us
  %21 = phi ptr [ %19, %.lr.ph.us ], [ %37, %.backedge.us ]
  %22 = tail call zeroext i16 @slurm_job_preempt_mode(ptr noundef nonnull %21) #14
  switch i16 %22, label %.outer.backedge.us [
    i16 0, label %32
    i16 1, label %23
  ]

23:                                               ; preds = %20
  %24 = load i16, ptr getelementptr inbounds nuw (i8, ptr @slurm_conf, i64 796), align 4
  %.not22.us = icmp sgt i16 %24, -1
  br i1 %.not22.us, label %.outer.backedge.us, label %25

25:                                               ; preds = %23
  %26 = tail call i32 @get_log_level() #14
  %27 = icmp sgt i32 %26, 4
  br i1 %27, label %28, label %29

28:                                               ; preds = %25
  tail call void (i32, ptr, ...) @log_var(i32 noundef 5, ptr noundef nonnull @.str.60, ptr noundef nonnull %21, ptr noundef %3) #14
  br label %29

29:                                               ; preds = %28, %25
  %30 = tail call i64 @time(ptr noundef null) #14
  %31 = getelementptr inbounds nuw i8, ptr %21, i64 696
  store i64 %30, ptr %31, align 8
  br label %.backedge.us

32:                                               ; preds = %20
  %33 = tail call i32 (ptr, ...) @error(ptr noundef nonnull @.str.59, ptr noundef nonnull @__func__._preempt_jobs, i32 noundef 0, ptr noundef nonnull %21) #14
  br label %.backedge.us

.outer.backedge.us:                               ; preds = %23, %20
  %34 = add nuw nsw i32 %.0.ph28.us, 1
  %35 = tail call i32 @slurm_job_preempt(ptr noundef nonnull %21, ptr noundef %3, i16 noundef zeroext %22, i1 noundef zeroext true) #14
  %36 = tail call ptr @list_next(ptr noundef %17) #14
  %.not2125.us = icmp eq ptr %36, null
  br i1 %.not2125.us, label %.outer._crit_edge.thread, label %.lr.ph.us, !llvm.loop !42

.backedge.us:                                     ; preds = %32, %29
  %37 = tail call ptr @list_next(ptr noundef %17) #14
  %.not21.us = icmp eq ptr %37, null
  br i1 %.not21.us, label %.outer._crit_edge, label %20, !llvm.loop !42

.lr.ph:                                           ; preds = %.lr.ph.lr.ph, %.outer.backedge
  %38 = phi ptr [ %55, %.outer.backedge ], [ %18, %.lr.ph.lr.ph ]
  %.0.ph28 = phi i32 [ %54, %.outer.backedge ], [ 0, %.lr.ph.lr.ph ]
  br label %39

39:                                               ; preds = %.lr.ph, %.backedge
  %40 = phi ptr [ %38, %.lr.ph ], [ %44, %.backedge ]
  %41 = tail call zeroext i16 @slurm_job_preempt_mode(ptr noundef nonnull %40) #14
  switch i16 %41, label %.outer.backedge [
    i16 0, label %42
    i16 1, label %45
  ]

42:                                               ; preds = %39
  %43 = tail call i32 (ptr, ...) @error(ptr noundef nonnull @.str.59, ptr noundef nonnull @__func__._preempt_jobs, i32 noundef 0, ptr noundef nonnull %40) #14
  br label %.backedge

.backedge:                                        ; preds = %42, %51
  %44 = tail call ptr @list_next(ptr noundef %17) #14
  %.not21 = icmp eq ptr %44, null
  br i1 %.not21, label %.outer._crit_edge, label %39, !llvm.loop !42

45:                                               ; preds = %39
  %46 = load i16, ptr getelementptr inbounds nuw (i8, ptr @slurm_conf, i64 796), align 4
  %.not22 = icmp sgt i16 %46, -1
  br i1 %.not22, label %.outer.backedge, label %47

47:                                               ; preds = %45
  %48 = tail call i32 @get_log_level() #14
  %49 = icmp sgt i32 %48, 4
  br i1 %49, label %50, label %51

50:                                               ; preds = %47
  tail call void (i32, ptr, ...) @log_var(i32 noundef 5, ptr noundef nonnull @.str.60, ptr noundef nonnull %40, ptr noundef %3) #14
  br label %51

51:                                               ; preds = %50, %47
  %52 = tail call i64 @time(ptr noundef null) #14
  %53 = getelementptr inbounds nuw i8, ptr %40, i64 696
  store i64 %52, ptr %53, align 8
  br label %.backedge

.outer.backedge:                                  ; preds = %39, %45
  %54 = add nuw nsw i32 %.0.ph28, 1
  %55 = tail call ptr @list_next(ptr noundef %17) #14
  %.not2125 = icmp eq ptr %55, null
  br i1 %.not2125, label %.outer._crit_edge.thread, label %.lr.ph, !llvm.loop !42

.outer._crit_edge.thread:                         ; preds = %.outer.backedge, %.outer.backedge.us
  tail call void @list_iterator_destroy(ptr noundef %17) #14
  br label %56

.outer._crit_edge:                                ; preds = %.backedge, %.backedge.us
  %.0.ph.lcssa = phi i32 [ %.0.ph28.us, %.backedge.us ], [ %.0.ph28, %.backedge ]
  tail call void @list_iterator_destroy(ptr noundef %17) #14
  %.not51 = icmp eq i32 %.0.ph.lcssa, 0
  br i1 %.not51, label %57, label %56

56:                                               ; preds = %.outer._crit_edge.thread, %.outer._crit_edge
  store i32 2016, ptr %2, align 4
  br label %57

57:                                               ; preds = %.outer._crit_edge.thread42, %56, %.outer._crit_edge
  ret void
}